target datalayout = "e-m:e-p270:32:32-p271:32:32-p272:64:64-i64:64-i128:128-f80:128-n8:16:32:64-S128"
target triple = "x86_64-unknown-linux-gnu"

; Function Attrs: mustprogress nounwind uwtable
define noundef float @_Z12cosine_decayllf(i64 noundef %step, i64 noundef %decay_steps, float noundef %minimum) #6 {
entry:
  %step.addr = alloca i64, align 8
  %decay_steps.addr = alloca i64, align 8
  %minimum.addr = alloca float, align 4
  %cosine_decay = alloca float, align 4
  %decay = alloca float, align 4
  store i64 %step, ptr %step.addr, align 8
  store i64 %decay_steps, ptr %decay_steps.addr, align 8
  store float %minimum, ptr %minimum.addr, align 4
  %0 = load i64, ptr %step.addr, align 8
  %1 = load i64, ptr %decay_steps.addr, align 8
  %cmp = icmp sgt i64 %0, %1
  br i1 %cmp, label %if.then, label %if.end

if.then:                                          ; preds = %entry
  %2 = load i64, ptr %decay_steps.addr, align 8
  store i64 %2, ptr %step.addr, align 8
  br label %if.end

if.end:                                           ; preds = %if.then, %entry
  %3 = load i64, ptr %step.addr, align 8
  %conv = sitofp i64 %3 to float
  %mul = fmul float 0x400921FB60000000, %conv
  %4 = load i64, ptr %decay_steps.addr, align 8
  %conv1 = sitofp i64 %4 to float
  %div = fdiv float %mul, %conv1
  %call = call float @cosf(float noundef %div) #3
  %add = fadd float 1.000000e+00, %call
  %mul2 = fmul float 5.000000e-01, %add
  store float %mul2, ptr %cosine_decay, align 4
  %5 = load float, ptr %minimum.addr, align 4
  %sub = fsub float 1.000000e+00, %5
  %6 = load float, ptr %cosine_decay, align 4
  %7 = load float, ptr %minimum.addr, align 4
  %8 = call float @llvm.fmuladd.f32(float %sub, float %6, float %7)
  store float %8, ptr %decay, align 4
  %9 = load float, ptr %decay, align 4
  ret float %9
}