; Function Attrs: mustprogress nofree nounwind willreturn memory(write) uwtable
define noundef float @_Z12cosine_decayllf(i64 noundef %step, i64 noundef %decay_steps, float noundef %minimum) local_unnamed_addr #19 {
entry:
  %spec.select = tail call i64 @llvm.smin.i64(i64 %step, i64 %decay_steps)
  %conv = sitofp i64 %spec.select to float
  %mul = fmul float %conv, 0x400921FB60000000
  %conv1 = sitofp i64 %decay_steps to float
  %div = fdiv float %mul, %conv1
  %call = tail call float @cosf(float noundef %div) #36
  %add = fadd float %call, 1.000000e+00
  %mul2 = fmul float %add, 5.000000e-01
  %sub = fsub float 1.000000e+00, %minimum
  %0 = tail call float @llvm.fmuladd.f32(float %sub, float %mul2, float %minimum)
  ret float %0
}